target datalayout = "e-m:e-p270:32:32-p271:32:32-p272:64:64-i64:64-i128:128-f80:128-n8:16:32:64-S128"
target triple = "x86_64-pc-linux-gnu"

; Function Attrs: nounwind uwtable
define internal void @_blend_RGB_R(ptr noundef %0, ptr noundef %1, ptr noundef %2, ptr noalias noundef %3, i64 noundef %4) #0 {
  %6 = alloca ptr, align 8
  %7 = alloca ptr, align 8
  %8 = alloca ptr, align 8
  %9 = alloca ptr, align 8
  %10 = alloca i64, align 8
  %11 = alloca i64, align 8
  %12 = alloca i64, align 8
  %13 = alloca float, align 4
  store ptr %0, ptr %6, align 8, !tbaa !11
  store ptr %1, ptr %7, align 8, !tbaa !11
  store ptr %2, ptr %8, align 8, !tbaa !11
  store ptr %3, ptr %9, align 8, !tbaa !11
  store i64 %4, ptr %10, align 8, !tbaa !43
  call void @llvm.lifetime.start.p0(i64 8, ptr %11) #8
  store i64 0, ptr %11, align 8, !tbaa !43
  call void @llvm.lifetime.start.p0(i64 8, ptr %12) #8
  store i64 0, ptr %12, align 8, !tbaa !43
  br label %14

14:                                               ; preds = %67, %5
  %15 = load i64, ptr %11, align 8, !tbaa !43
  %16 = load i64, ptr %10, align 8, !tbaa !43
  %17 = icmp ult i64 %15, %16
  br i1 %17, label %19, label %18

18:                                               ; preds = %14
  call void @llvm.lifetime.end.p0(i64 8, ptr %12) #8
  call void @llvm.lifetime.end.p0(i64 8, ptr %11) #8
  br label %72

19:                                               ; preds = %14
  call void @llvm.lifetime.start.p0(i64 4, ptr %13) #8
  %20 = load ptr, ptr %9, align 8, !tbaa !11
  %21 = load i64, ptr %11, align 8, !tbaa !43
  %22 = getelementptr inbounds nuw float, ptr %20, i64 %21
  %23 = load float, ptr %22, align 4, !tbaa !45
  store float %23, ptr %13, align 4, !tbaa !45
  %24 = load ptr, ptr %6, align 8, !tbaa !11
  %25 = load i64, ptr %12, align 8, !tbaa !43
  %26 = add i64 %25, 0
  %27 = getelementptr inbounds nuw float, ptr %24, i64 %26
  %28 = load float, ptr %27, align 4, !tbaa !45
  %29 = load float, ptr %13, align 4, !tbaa !45
  %30 = fsub reassoc nsz arcp contract afn float 1.000000e+00, %29
  %31 = fmul reassoc nsz arcp contract afn float %28, %30
  %32 = load ptr, ptr %7, align 8, !tbaa !11
  %33 = load i64, ptr %12, align 8, !tbaa !43
  %34 = add i64 %33, 0
  %35 = getelementptr inbounds nuw float, ptr %32, i64 %34
  %36 = load float, ptr %35, align 4, !tbaa !45
  %37 = load float, ptr %13, align 4, !tbaa !45
  %38 = fmul reassoc nsz arcp contract afn float %36, %37
  %39 = fadd reassoc nsz arcp contract afn float %31, %38
  %40 = load ptr, ptr %8, align 8, !tbaa !11
  %41 = load i64, ptr %12, align 8, !tbaa !43
  %42 = add i64 %41, 0
  %43 = getelementptr inbounds nuw float, ptr %40, i64 %42
  store float %39, ptr %43, align 4, !tbaa !45
  %44 = load ptr, ptr %6, align 8, !tbaa !11
  %45 = load i64, ptr %12, align 8, !tbaa !43
  %46 = add i64 %45, 1
  %47 = getelementptr inbounds nuw float, ptr %44, i64 %46
  %48 = load float, ptr %47, align 4, !tbaa !45
  %49 = load ptr, ptr %8, align 8, !tbaa !11
  %50 = load i64, ptr %12, align 8, !tbaa !43
  %51 = add i64 %50, 1
  %52 = getelementptr inbounds nuw float, ptr %49, i64 %51
  store float %48, ptr %52, align 4, !tbaa !45
  %53 = load ptr, ptr %6, align 8, !tbaa !11
  %54 = load i64, ptr %12, align 8, !tbaa !43
  %55 = add i64 %54, 2
  %56 = getelementptr inbounds nuw float, ptr %53, i64 %55
  %57 = load float, ptr %56, align 4, !tbaa !45
  %58 = load ptr, ptr %8, align 8, !tbaa !11
  %59 = load i64, ptr %12, align 8, !tbaa !43
  %60 = add i64 %59, 2
  %61 = getelementptr inbounds nuw float, ptr %58, i64 %60
  store float %57, ptr %61, align 4, !tbaa !45
  %62 = load float, ptr %13, align 4, !tbaa !45
  %63 = load ptr, ptr %8, align 8, !tbaa !11
  %64 = load i64, ptr %12, align 8, !tbaa !43
  %65 = add i64 %64, 3
  %66 = getelementptr inbounds nuw float, ptr %63, i64 %65
  store float %62, ptr %66, align 4, !tbaa !45
  call void @llvm.lifetime.end.p0(i64 4, ptr %13) #8
  br label %67

67:                                               ; preds = %19
  %68 = load i64, ptr %11, align 8, !tbaa !43
  %69 = add i64 %68, 1
  store i64 %69, ptr %11, align 8, !tbaa !43
  %70 = load i64, ptr %12, align 8, !tbaa !43
  %71 = add i64 %70, 4
  store i64 %71, ptr %12, align 8, !tbaa !43
  br label %14

72:                                               ; preds = %18
  ret void
}